target datalayout = "e-m:e-p270:32:32-p271:32:32-p272:64:64-i64:64-i128:128-f80:128-n8:16:32:64-S128"
target triple = "x86_64-pc-linux-gnu"

%struct.ossl_namemap_st = type { i8, ptr, ptr, ptr, i32 }

@.str.3 = private unnamed_addr constant [4 x i8] c"DHX\00", align 1

; Function Attrs: nounwind uwtable
define internal void @get_legacy_pkey_meth_names(ptr noundef %0, ptr noundef %1) #0 {
  %3 = alloca ptr, align 8
  %4 = alloca ptr, align 8
  %5 = alloca i32, align 4
  %6 = alloca i32, align 4
  %7 = alloca i32, align 4
  %8 = alloca ptr, align 8
  store ptr %0, ptr %3, align 8, !tbaa !54
  store ptr %1, ptr %4, align 8, !tbaa !20
  call void @llvm.lifetime.start.p0(i64 4, ptr %5) #7
  store i32 0, ptr %5, align 4, !tbaa !21
  call void @llvm.lifetime.start.p0(i64 4, ptr %6) #7
  store i32 0, ptr %6, align 4, !tbaa !21
  call void @llvm.lifetime.start.p0(i64 4, ptr %7) #7
  store i32 0, ptr %7, align 4, !tbaa !21
  call void @llvm.lifetime.start.p0(i64 8, ptr %8) #7
  store ptr null, ptr %8, align 8, !tbaa !27
  %9 = load ptr, ptr %3, align 8, !tbaa !54
  %10 = call i32 @EVP_PKEY_asn1_get0_info(ptr noundef %5, ptr noundef %6, ptr noundef %7, ptr noundef null, ptr noundef %8, ptr noundef %9)
  %11 = load i32, ptr %5, align 4, !tbaa !21
  %12 = icmp ne i32 %11, 0
  br i1 %12, label %13, label %40

13:                                               ; preds = %2
  %14 = load i32, ptr %7, align 4, !tbaa !21
  %15 = and i32 %14, 1
  %16 = icmp eq i32 %15, 0
  br i1 %16, label %17, label %27

17:                                               ; preds = %13
  %18 = load i32, ptr %5, align 4, !tbaa !21
  switch i32 %18, label %22 [
    i32 920, label %19
  ]

19:                                               ; preds = %17
  %20 = load i32, ptr %5, align 4, !tbaa !21
  %21 = load ptr, ptr %4, align 8, !tbaa !20
  call void @get_legacy_evp_names(i32 noundef 0, i32 noundef %20, ptr noundef @.str.3, ptr noundef %21)
  br label %22

22:                                               ; preds = %17, %19
  %23 = load i32, ptr %5, align 4, !tbaa !21
  %24 = load ptr, ptr %8, align 8, !tbaa !27
  %25 = load ptr, ptr %4, align 8, !tbaa !20
  call void @get_legacy_evp_names(i32 noundef 0, i32 noundef %23, ptr noundef %24, ptr noundef %25)
  br label %26

26:                                               ; preds = %22
  br label %39

27:                                               ; preds = %13
  %28 = load i32, ptr %5, align 4, !tbaa !21
  switch i32 %28, label %33 [
    i32 1172, label %29
  ]

29:                                               ; preds = %27
  %30 = load i32, ptr %5, align 4, !tbaa !21
  %31 = load ptr, ptr %8, align 8, !tbaa !27
  %32 = load ptr, ptr %4, align 8, !tbaa !20
  call void @get_legacy_evp_names(i32 noundef 0, i32 noundef %30, ptr noundef %31, ptr noundef %32)
  br label %38

33:                                               ; preds = %27
  %34 = load i32, ptr %6, align 4, !tbaa !21
  %35 = load i32, ptr %5, align 4, !tbaa !21
  %36 = load ptr, ptr %8, align 8, !tbaa !27
  %37 = load ptr, ptr %4, align 8, !tbaa !20
  call void @get_legacy_evp_names(i32 noundef %34, i32 noundef %35, ptr noundef %36, ptr noundef %37)
  br label %38

38:                                               ; preds = %33, %29
  br label %39

39:                                               ; preds = %38, %26
  br label %40

40:                                               ; preds = %39, %2
  call void @llvm.lifetime.end.p0(i64 8, ptr %8) #7
  call void @llvm.lifetime.end.p0(i64 4, ptr %7) #7
  call void @llvm.lifetime.end.p0(i64 4, ptr %6) #7
  call void @llvm.lifetime.end.p0(i64 4, ptr %5) #7
  ret void
}

; Function Attrs: nounwind uwtable
define i32 @ossl_namemap_empty(ptr noundef %0) #0 {
  %2 = alloca ptr, align 8
  %3 = alloca i32, align 4
  store ptr %0, ptr %2, align 8, !tbaa !8
  %4 = load ptr, ptr %2, align 8, !tbaa !8
  %5 = icmp eq ptr %4, null
  br i1 %5, label %12, label %6

6:                                                ; preds = %1
  %7 = load ptr, ptr %2, align 8, !tbaa !8
  %8 = getelementptr inbounds nuw %struct.ossl_namemap_st, ptr %7, i32 0, i32 4
  %9 = load atomic i32, ptr %8 monotonic, align 8
  store i32 %9, ptr %3, align 4
  %10 = load i32, ptr %3, align 4, !tbaa !21
  %11 = icmp eq i32 %10, 0
  br label %12

12:                                               ; preds = %6, %1
  %13 = phi i1 [ true, %1 ], [ %11, %6 ]
  %14 = zext i1 %13 to i32
  ret i32 %14
}

; Function Attrs: nounwind uwtable
define ptr @ossl_namemap_stored(ptr noundef %0) #0 {
  %2 = alloca ptr, align 8
  %3 = alloca ptr, align 8
  %4 = alloca i32, align 4
  %5 = alloca ptr, align 8
  %6 = alloca i32, align 4
  %7 = alloca i32, align 4
  %8 = alloca i32, align 4
  store ptr %0, ptr %3, align 8, !tbaa !3
  call void @llvm.lifetime.start.p0(i64 4, ptr %4) #7
  call void @llvm.lifetime.start.p0(i64 8, ptr %5) #7
  %9 = load ptr, ptr %3, align 8, !tbaa !3
  %10 = call ptr @ossl_lib_ctx_get_data(ptr noundef %9, i32 noundef 4)
  store ptr %10, ptr %5, align 8, !tbaa !8
  %11 = load ptr, ptr %5, align 8, !tbaa !8
  %12 = icmp eq ptr %11, null
  br i1 %12, label %13, label %14

13:                                               ; preds = %1
  store ptr null, ptr %2, align 8
  store i32 1, ptr %6, align 4
  br label %42

14:                                               ; preds = %1
  %15 = load ptr, ptr %5, align 8, !tbaa !8
  %16 = call i32 @ossl_namemap_empty(ptr noundef %15)
  store i32 %16, ptr %4, align 4, !tbaa !21
  %17 = load i32, ptr %4, align 4, !tbaa !21
  %18 = icmp slt i32 %17, 0
  br i1 %18, label %19, label %20

19:                                               ; preds = %14
  store ptr null, ptr %2, align 8
  store i32 1, ptr %6, align 4
  br label %42

20:                                               ; preds = %14
  %21 = load i32, ptr %4, align 4, !tbaa !21
  %22 = icmp eq i32 %21, 1
  br i1 %22, label %23, label %40

23:                                               ; preds = %20
  call void @llvm.lifetime.start.p0(i64 4, ptr %7) #7
  call void @llvm.lifetime.start.p0(i64 4, ptr %8) #7
  %24 = call i32 @OPENSSL_init_crypto(i64 noundef 12, ptr noundef null)
  %25 = load ptr, ptr %5, align 8, !tbaa !8
  call void @OBJ_NAME_do_all(i32 noundef 2, ptr noundef @get_legacy_cipher_names, ptr noundef %25)
  %26 = load ptr, ptr %5, align 8, !tbaa !8
  call void @OBJ_NAME_do_all(i32 noundef 1, ptr noundef @get_legacy_md_names, ptr noundef %26)
  store i32 0, ptr %7, align 4, !tbaa !21
  %27 = call i32 @EVP_PKEY_asn1_get_count()
  store i32 %27, ptr %8, align 4, !tbaa !21
  br label %28

28:                                               ; preds = %36, %23
  %29 = load i32, ptr %7, align 4, !tbaa !21
  %30 = load i32, ptr %8, align 4, !tbaa !21
  %31 = icmp slt i32 %29, %30
  br i1 %31, label %32, label %39

32:                                               ; preds = %28
  %33 = load i32, ptr %7, align 4, !tbaa !21
  %34 = call ptr @EVP_PKEY_asn1_get0(i32 noundef %33)
  %35 = load ptr, ptr %5, align 8, !tbaa !8
  call void @get_legacy_pkey_meth_names(ptr noundef %34, ptr noundef %35)
  br label %36

36:                                               ; preds = %32
  %37 = load i32, ptr %7, align 4, !tbaa !21
  %38 = add nsw i32 %37, 1
  store i32 %38, ptr %7, align 4, !tbaa !21
  br label %28, !llvm.loop !39

39:                                               ; preds = %28
  call void @llvm.lifetime.end.p0(i64 4, ptr %8) #7
  call void @llvm.lifetime.end.p0(i64 4, ptr %7) #7
  br label %40

40:                                               ; preds = %39, %20
  %41 = load ptr, ptr %5, align 8, !tbaa !8
  store ptr %41, ptr %2, align 8
  store i32 1, ptr %6, align 4
  br label %42

42:                                               ; preds = %40, %19, %13
  call void @llvm.lifetime.end.p0(i64 8, ptr %5) #7
  call void @llvm.lifetime.end.p0(i64 4, ptr %4) #7
  %43 = load ptr, ptr %2, align 8
  ret ptr %43
}