; Function Attrs: nounwind uwtable
define ptr @ossl_namemap_stored(ptr noundef %0) local_unnamed_addr #0 {
  %2 = alloca i32, align 4
  %3 = alloca i32, align 4
  %4 = alloca i32, align 4
  %5 = alloca ptr, align 8
  %6 = tail call ptr @ossl_lib_ctx_get_data(ptr noundef %0, i32 noundef 4) #6
  %7 = icmp eq ptr %6, null
  br i1 %7, label %.loopexit, label %ossl_namemap_empty.exit

ossl_namemap_empty.exit:                          ; preds = %1
  %8 = getelementptr inbounds nuw i8, ptr %6, i64 32
  %9 = load atomic i32, ptr %8 monotonic, align 8
  %.not = icmp eq i32 %9, 0
  br i1 %.not, label %10, label %.loopexit

10:                                               ; preds = %ossl_namemap_empty.exit
  %11 = tail call i32 @OPENSSL_init_crypto(i64 noundef 12, ptr noundef null) #6
  tail call void @OBJ_NAME_do_all(i32 noundef 2, ptr noundef nonnull @get_legacy_cipher_names, ptr noundef nonnull %6) #6
  tail call void @OBJ_NAME_do_all(i32 noundef 1, ptr noundef nonnull @get_legacy_md_names, ptr noundef nonnull %6) #6
  %12 = tail call i32 @EVP_PKEY_asn1_get_count() #6
  %13 = icmp sgt i32 %12, 0
  br i1 %13, label %.lr.ph, label %.loopexit

.lr.ph:                                           ; preds = %10, %get_legacy_pkey_meth_names.exit
  %.01316 = phi i32 [ %32, %get_legacy_pkey_meth_names.exit ], [ 0, %10 ]
  %14 = call ptr @EVP_PKEY_asn1_get0(i32 noundef %.01316) #6
  call void @llvm.lifetime.start.p0(i64 4, ptr nonnull %2) #6
  store i32 0, ptr %2, align 4, !tbaa !30
  call void @llvm.lifetime.start.p0(i64 4, ptr nonnull %3) #6
  store i32 0, ptr %3, align 4, !tbaa !30
  call void @llvm.lifetime.start.p0(i64 4, ptr nonnull %4) #6
  store i32 0, ptr %4, align 4, !tbaa !30
  call void @llvm.lifetime.start.p0(i64 8, ptr nonnull %5) #6
  store ptr null, ptr %5, align 8, !tbaa !31
  %15 = call i32 @EVP_PKEY_asn1_get0_info(ptr noundef nonnull %2, ptr noundef nonnull %3, ptr noundef nonnull %4, ptr noundef null, ptr noundef nonnull %5, ptr noundef %14) #6
  %16 = load i32, ptr %2, align 4, !tbaa !30
  %.not.i = icmp eq i32 %16, 0
  br i1 %.not.i, label %get_legacy_pkey_meth_names.exit, label %17

17:                                               ; preds = %.lr.ph
  %18 = load i32, ptr %4, align 4, !tbaa !30
  %19 = and i32 %18, 1
  %20 = icmp eq i32 %19, 0
  br i1 %20, label %21, label %26

21:                                               ; preds = %17
  %cond1.i = icmp eq i32 %16, 920
  br i1 %cond1.i, label %22, label %23

22:                                               ; preds = %21
  call fastcc void @get_legacy_evp_names(i32 noundef 0, i32 noundef 920, ptr noundef nonnull @.str.3, ptr noundef nonnull %6)
  %.pre = load i32, ptr %2, align 4, !tbaa !30
  br label %23

23:                                               ; preds = %22, %21
  %24 = phi i32 [ %.pre, %22 ], [ %16, %21 ]
  %25 = load ptr, ptr %5, align 8, !tbaa !31
  call fastcc void @get_legacy_evp_names(i32 noundef 0, i32 noundef %24, ptr noundef %25, ptr noundef nonnull %6)
  br label %get_legacy_pkey_meth_names.exit

26:                                               ; preds = %17
  %cond.i = icmp eq i32 %16, 1172
  br i1 %cond.i, label %27, label %29

27:                                               ; preds = %26
  %28 = load ptr, ptr %5, align 8, !tbaa !31
  call fastcc void @get_legacy_evp_names(i32 noundef 0, i32 noundef 1172, ptr noundef %28, ptr noundef nonnull %6)
  br label %get_legacy_pkey_meth_names.exit

29:                                               ; preds = %26
  %30 = load i32, ptr %3, align 4, !tbaa !30
  %31 = load ptr, ptr %5, align 8, !tbaa !31
  call fastcc void @get_legacy_evp_names(i32 noundef %30, i32 noundef %16, ptr noundef %31, ptr noundef nonnull %6)
  br label %get_legacy_pkey_meth_names.exit

get_legacy_pkey_meth_names.exit:                  ; preds = %.lr.ph, %23, %27, %29
  call void @llvm.lifetime.end.p0(i64 8, ptr nonnull %5) #6
  call void @llvm.lifetime.end.p0(i64 4, ptr nonnull %4) #6
  call void @llvm.lifetime.end.p0(i64 4, ptr nonnull %3) #6
  call void @llvm.lifetime.end.p0(i64 4, ptr nonnull %2) #6
  %32 = add nuw nsw i32 %.01316, 1
  %exitcond.not = icmp eq i32 %32, %12
  br i1 %exitcond.not, label %.loopexit, label %.lr.ph, !llvm.loop !32

.loopexit:                                        ; preds = %get_legacy_pkey_meth_names.exit, %10, %ossl_namemap_empty.exit, %1
  ret ptr %6
}